target datalayout = "e-m:e-p270:32:32-p271:32:32-p272:64:64-i64:64-i128:128-f80:128-n8:16:32:64-S128"
target triple = "x86_64-pc-linux-gnu"

%struct.jv = type { i8, i8, i16, i32, %union.anon }
%union.anon = type { ptr }

@.str.161 = private unnamed_addr constant [34 x i8] c"endswith() requires string inputs\00", align 1

; Function Attrs: inlinehint nounwind uwtable
define internal { i64, ptr } @ret_error2(i64 %0, ptr %1, i64 %2, ptr %3, i64 %4, ptr %5) #7 {
  %7 = alloca %struct.jv, align 8
  %8 = alloca %struct.jv, align 8
  %9 = alloca %struct.jv, align 8
  %10 = alloca %struct.jv, align 8
  %11 = getelementptr inbounds nuw { i64, ptr }, ptr %8, i32 0, i32 0
  store i64 %0, ptr %11, align 8
  %12 = getelementptr inbounds nuw { i64, ptr }, ptr %8, i32 0, i32 1
  store ptr %1, ptr %12, align 8
  %13 = getelementptr inbounds nuw { i64, ptr }, ptr %9, i32 0, i32 0
  store i64 %2, ptr %13, align 8
  %14 = getelementptr inbounds nuw { i64, ptr }, ptr %9, i32 0, i32 1
  store ptr %3, ptr %14, align 8
  %15 = getelementptr inbounds nuw { i64, ptr }, ptr %10, i32 0, i32 0
  store i64 %4, ptr %15, align 8
  %16 = getelementptr inbounds nuw { i64, ptr }, ptr %10, i32 0, i32 1
  store ptr %5, ptr %16, align 8
  %17 = getelementptr inbounds nuw { i64, ptr }, ptr %8, i32 0, i32 0
  %18 = load i64, ptr %17, align 8
  %19 = getelementptr inbounds nuw { i64, ptr }, ptr %8, i32 0, i32 1
  %20 = load ptr, ptr %19, align 8
  call void @jv_free(i64 %18, ptr %20)
  %21 = getelementptr inbounds nuw { i64, ptr }, ptr %9, i32 0, i32 0
  %22 = load i64, ptr %21, align 8
  %23 = getelementptr inbounds nuw { i64, ptr }, ptr %9, i32 0, i32 1
  %24 = load ptr, ptr %23, align 8
  call void @jv_free(i64 %22, ptr %24)
  %25 = getelementptr inbounds nuw { i64, ptr }, ptr %10, i32 0, i32 0
  %26 = load i64, ptr %25, align 8
  %27 = getelementptr inbounds nuw { i64, ptr }, ptr %10, i32 0, i32 1
  %28 = load ptr, ptr %27, align 8
  %29 = call { i64, ptr } @jv_invalid_with_msg(i64 %26, ptr %28)
  %30 = getelementptr inbounds nuw { i64, ptr }, ptr %7, i32 0, i32 0
  %31 = extractvalue { i64, ptr } %29, 0
  store i64 %31, ptr %30, align 8
  %32 = getelementptr inbounds nuw { i64, ptr }, ptr %7, i32 0, i32 1
  %33 = extractvalue { i64, ptr } %29, 1
  store ptr %33, ptr %32, align 8
  %34 = load { i64, ptr }, ptr %7, align 8
  ret { i64, ptr } %34
}

; Function Attrs: nounwind uwtable
define internal { i64, ptr } @f_endswith(ptr noundef %0, i64 %1, ptr %2, i64 %3, ptr %4) #0 {
  %6 = alloca %struct.jv, align 8
  %7 = alloca %struct.jv, align 8
  %8 = alloca %struct.jv, align 8
  %9 = alloca ptr, align 8
  %10 = alloca %struct.jv, align 8
  %11 = alloca ptr, align 8
  %12 = alloca ptr, align 8
  %13 = alloca i64, align 8
  %14 = alloca %struct.jv, align 8
  %15 = alloca i64, align 8
  %16 = alloca %struct.jv, align 8
  %17 = alloca %struct.jv, align 8
  %18 = alloca %struct.jv, align 8
  %19 = getelementptr inbounds nuw { i64, ptr }, ptr %7, i32 0, i32 0
  store i64 %1, ptr %19, align 8
  %20 = getelementptr inbounds nuw { i64, ptr }, ptr %7, i32 0, i32 1
  store ptr %2, ptr %20, align 8
  %21 = getelementptr inbounds nuw { i64, ptr }, ptr %8, i32 0, i32 0
  store i64 %3, ptr %21, align 8
  %22 = getelementptr inbounds nuw { i64, ptr }, ptr %8, i32 0, i32 1
  store ptr %4, ptr %22, align 8
  store ptr %0, ptr %9, align 8, !tbaa !25
  %23 = getelementptr inbounds nuw { i64, ptr }, ptr %7, i32 0, i32 0
  %24 = load i64, ptr %23, align 8
  %25 = getelementptr inbounds nuw { i64, ptr }, ptr %7, i32 0, i32 1
  %26 = load ptr, ptr %25, align 8
  %27 = call i32 @jv_get_kind(i64 %24, ptr %26)
  %28 = icmp ne i32 %27, 5
  br i1 %28, label %36, label %29

29:                                               ; preds = %5
  %30 = getelementptr inbounds nuw { i64, ptr }, ptr %8, i32 0, i32 0
  %31 = load i64, ptr %30, align 8
  %32 = getelementptr inbounds nuw { i64, ptr }, ptr %8, i32 0, i32 1
  %33 = load ptr, ptr %32, align 8
  %34 = call i32 @jv_get_kind(i64 %31, ptr %33)
  %35 = icmp ne i32 %34, 5
  br i1 %35, label %36, label %59

36:                                               ; preds = %29, %5
  %37 = call { i64, ptr } @jv_string(ptr noundef @.str.161)
  %38 = getelementptr inbounds nuw { i64, ptr }, ptr %10, i32 0, i32 0
  %39 = extractvalue { i64, ptr } %37, 0
  store i64 %39, ptr %38, align 8
  %40 = getelementptr inbounds nuw { i64, ptr }, ptr %10, i32 0, i32 1
  %41 = extractvalue { i64, ptr } %37, 1
  store ptr %41, ptr %40, align 8
  %42 = getelementptr inbounds nuw { i64, ptr }, ptr %7, i32 0, i32 0
  %43 = load i64, ptr %42, align 8
  %44 = getelementptr inbounds nuw { i64, ptr }, ptr %7, i32 0, i32 1
  %45 = load ptr, ptr %44, align 8
  %46 = getelementptr inbounds nuw { i64, ptr }, ptr %8, i32 0, i32 0
  %47 = load i64, ptr %46, align 8
  %48 = getelementptr inbounds nuw { i64, ptr }, ptr %8, i32 0, i32 1
  %49 = load ptr, ptr %48, align 8
  %50 = getelementptr inbounds nuw { i64, ptr }, ptr %10, i32 0, i32 0
  %51 = load i64, ptr %50, align 8
  %52 = getelementptr inbounds nuw { i64, ptr }, ptr %10, i32 0, i32 1
  %53 = load ptr, ptr %52, align 8
  %54 = call { i64, ptr } @ret_error2(i64 %43, ptr %45, i64 %47, ptr %49, i64 %51, ptr %53)
  %55 = getelementptr inbounds nuw { i64, ptr }, ptr %6, i32 0, i32 0
  %56 = extractvalue { i64, ptr } %54, 0
  store i64 %56, ptr %55, align 8
  %57 = getelementptr inbounds nuw { i64, ptr }, ptr %6, i32 0, i32 1
  %58 = extractvalue { i64, ptr } %54, 1
  store ptr %58, ptr %57, align 8
  br label %134

59:                                               ; preds = %29
  call void @llvm.lifetime.start.p0(i64 8, ptr %11) #10
  %60 = getelementptr inbounds nuw { i64, ptr }, ptr %7, i32 0, i32 0
  %61 = load i64, ptr %60, align 8
  %62 = getelementptr inbounds nuw { i64, ptr }, ptr %7, i32 0, i32 1
  %63 = load ptr, ptr %62, align 8
  %64 = call ptr @jv_string_value(i64 %61, ptr %63)
  store ptr %64, ptr %11, align 8, !tbaa !12
  call void @llvm.lifetime.start.p0(i64 8, ptr %12) #10
  %65 = getelementptr inbounds nuw { i64, ptr }, ptr %8, i32 0, i32 0
  %66 = load i64, ptr %65, align 8
  %67 = getelementptr inbounds nuw { i64, ptr }, ptr %8, i32 0, i32 1
  %68 = load ptr, ptr %67, align 8
  %69 = call ptr @jv_string_value(i64 %66, ptr %68)
  store ptr %69, ptr %12, align 8, !tbaa !12
  call void @llvm.lifetime.start.p0(i64 8, ptr %13) #10
  %70 = getelementptr inbounds nuw { i64, ptr }, ptr %7, i32 0, i32 0
  %71 = load i64, ptr %70, align 8
  %72 = getelementptr inbounds nuw { i64, ptr }, ptr %7, i32 0, i32 1
  %73 = load ptr, ptr %72, align 8
  %74 = call { i64, ptr } @jv_copy(i64 %71, ptr %73)
  %75 = getelementptr inbounds nuw { i64, ptr }, ptr %14, i32 0, i32 0
  %76 = extractvalue { i64, ptr } %74, 0
  store i64 %76, ptr %75, align 8
  %77 = getelementptr inbounds nuw { i64, ptr }, ptr %14, i32 0, i32 1
  %78 = extractvalue { i64, ptr } %74, 1
  store ptr %78, ptr %77, align 8
  %79 = getelementptr inbounds nuw { i64, ptr }, ptr %14, i32 0, i32 0
  %80 = load i64, ptr %79, align 8
  %81 = getelementptr inbounds nuw { i64, ptr }, ptr %14, i32 0, i32 1
  %82 = load ptr, ptr %81, align 8
  %83 = call i32 @jv_string_length_bytes(i64 %80, ptr %82)
  %84 = sext i32 %83 to i64
  store i64 %84, ptr %13, align 8, !tbaa !22
  call void @llvm.lifetime.start.p0(i64 8, ptr %15) #10
  %85 = getelementptr inbounds nuw { i64, ptr }, ptr %8, i32 0, i32 0
  %86 = load i64, ptr %85, align 8
  %87 = getelementptr inbounds nuw { i64, ptr }, ptr %8, i32 0, i32 1
  %88 = load ptr, ptr %87, align 8
  %89 = call { i64, ptr } @jv_copy(i64 %86, ptr %88)
  %90 = getelementptr inbounds nuw { i64, ptr }, ptr %16, i32 0, i32 0
  %91 = extractvalue { i64, ptr } %89, 0
  store i64 %91, ptr %90, align 8
  %92 = getelementptr inbounds nuw { i64, ptr }, ptr %16, i32 0, i32 1
  %93 = extractvalue { i64, ptr } %89, 1
  store ptr %93, ptr %92, align 8
  %94 = getelementptr inbounds nuw { i64, ptr }, ptr %16, i32 0, i32 0
  %95 = load i64, ptr %94, align 8
  %96 = getelementptr inbounds nuw { i64, ptr }, ptr %16, i32 0, i32 1
  %97 = load ptr, ptr %96, align 8
  %98 = call i32 @jv_string_length_bytes(i64 %95, ptr %97)
  %99 = sext i32 %98 to i64
  store i64 %99, ptr %15, align 8, !tbaa !22
  %100 = load i64, ptr %13, align 8, !tbaa !22
  %101 = load i64, ptr %15, align 8, !tbaa !22
  %102 = icmp ult i64 %100, %101
  br i1 %102, label %113, label %103

103:                                              ; preds = %59
  %104 = load ptr, ptr %11, align 8, !tbaa !12
  %105 = load i64, ptr %13, align 8, !tbaa !22
  %106 = load i64, ptr %15, align 8, !tbaa !22
  %107 = sub i64 %105, %106
  %108 = getelementptr inbounds nuw i8, ptr %104, i64 %107
  %109 = load ptr, ptr %12, align 8, !tbaa !12
  %110 = load i64, ptr %15, align 8, !tbaa !22
  %111 = call i32 @memcmp(ptr noundef %108, ptr noundef %109, i64 noundef %110) #12
  %112 = icmp ne i32 %111, 0
  br i1 %112, label %113, label %119

113:                                              ; preds = %103, %59
  call void @llvm.lifetime.start.p0(i64 16, ptr %17) #10
  %114 = call { i64, ptr } @jv_false()
  %115 = getelementptr inbounds nuw { i64, ptr }, ptr %17, i32 0, i32 0
  %116 = extractvalue { i64, ptr } %114, 0
  store i64 %116, ptr %115, align 8
  %117 = getelementptr inbounds nuw { i64, ptr }, ptr %17, i32 0, i32 1
  %118 = extractvalue { i64, ptr } %114, 1
  store ptr %118, ptr %117, align 8
  call void @llvm.memcpy.p0.p0.i64(ptr align 8 %6, ptr align 8 %17, i64 16, i1 false), !tbaa.struct !4
  call void @llvm.lifetime.end.p0(i64 16, ptr %17) #10
  br label %125

119:                                              ; preds = %103
  call void @llvm.lifetime.start.p0(i64 16, ptr %18) #10
  %120 = call { i64, ptr } @jv_true()
  %121 = getelementptr inbounds nuw { i64, ptr }, ptr %18, i32 0, i32 0
  %122 = extractvalue { i64, ptr } %120, 0
  store i64 %122, ptr %121, align 8
  %123 = getelementptr inbounds nuw { i64, ptr }, ptr %18, i32 0, i32 1
  %124 = extractvalue { i64, ptr } %120, 1
  store ptr %124, ptr %123, align 8
  call void @llvm.memcpy.p0.p0.i64(ptr align 8 %6, ptr align 8 %18, i64 16, i1 false), !tbaa.struct !4
  call void @llvm.lifetime.end.p0(i64 16, ptr %18) #10
  br label %125

125:                                              ; preds = %119, %113
  %126 = getelementptr inbounds nuw { i64, ptr }, ptr %7, i32 0, i32 0
  %127 = load i64, ptr %126, align 8
  %128 = getelementptr inbounds nuw { i64, ptr }, ptr %7, i32 0, i32 1
  %129 = load ptr, ptr %128, align 8
  call void @jv_free(i64 %127, ptr %129)
  %130 = getelementptr inbounds nuw { i64, ptr }, ptr %8, i32 0, i32 0
  %131 = load i64, ptr %130, align 8
  %132 = getelementptr inbounds nuw { i64, ptr }, ptr %8, i32 0, i32 1
  %133 = load ptr, ptr %132, align 8
  call void @jv_free(i64 %131, ptr %133)
  call void @llvm.lifetime.end.p0(i64 8, ptr %15) #10
  call void @llvm.lifetime.end.p0(i64 8, ptr %13) #10
  call void @llvm.lifetime.end.p0(i64 8, ptr %12) #10
  call void @llvm.lifetime.end.p0(i64 8, ptr %11) #10
  br label %134

134:                                              ; preds = %125, %36
  %135 = load { i64, ptr }, ptr %6, align 8
  ret { i64, ptr } %135
}