; Function Attrs: nounwind uwtable
define internal { i64, ptr } @f_endswith(ptr readnone captures(none) %0, i64 %1, ptr %2, i64 %3, ptr %4) #0 {
  %6 = tail call i32 @jv_get_kind(i64 %1, ptr %2) #14
  %.not = icmp eq i32 %6, 5
  br i1 %.not, label %7, label %9

7:                                                ; preds = %5
  %8 = tail call i32 @jv_get_kind(i64 %3, ptr %4) #14
  %.not35 = icmp eq i32 %8, 5
  br i1 %.not35, label %14, label %9

9:                                                ; preds = %7, %5
  %10 = tail call { i64, ptr } @jv_string(ptr noundef nonnull @.str.161) #14
  %11 = extractvalue { i64, ptr } %10, 0
  %12 = extractvalue { i64, ptr } %10, 1
  tail call void @jv_free(i64 %1, ptr %2) #14
  tail call void @jv_free(i64 %3, ptr %4) #14
  %13 = tail call { i64, ptr } @jv_invalid_with_msg(i64 %11, ptr %12) #14
  br label %36

14:                                               ; preds = %7
  %15 = tail call ptr @jv_string_value(i64 %1, ptr %2) #14
  %16 = tail call ptr @jv_string_value(i64 %3, ptr %4) #14
  %17 = tail call { i64, ptr } @jv_copy(i64 %1, ptr %2) #14
  %18 = extractvalue { i64, ptr } %17, 0
  %19 = extractvalue { i64, ptr } %17, 1
  %20 = tail call i32 @jv_string_length_bytes(i64 %18, ptr %19) #14
  %21 = tail call { i64, ptr } @jv_copy(i64 %3, ptr %4) #14
  %22 = extractvalue { i64, ptr } %21, 0
  %23 = extractvalue { i64, ptr } %21, 1
  %24 = tail call i32 @jv_string_length_bytes(i64 %22, ptr %23) #14
  %25 = icmp ult i32 %20, %24
  br i1 %25, label %31, label %26

26:                                               ; preds = %14
  %27 = sext i32 %24 to i64
  %28 = sext i32 %20 to i64
  %29 = sub nsw i64 %28, %27
  %30 = getelementptr inbounds nuw i8, ptr %15, i64 %29
  %bcmp = tail call i32 @bcmp(ptr %30, ptr %16, i64 %27)
  %.not36 = icmp eq i32 %bcmp, 0
  br i1 %.not36, label %33, label %31

31:                                               ; preds = %26, %14
  %32 = tail call { i64, ptr } @jv_false() #14
  br label %35

33:                                               ; preds = %26
  %34 = tail call { i64, ptr } @jv_true() #14
  br label %35

35:                                               ; preds = %33, %31
  %.pn = phi { i64, ptr } [ %32, %31 ], [ %34, %33 ]
  tail call void @jv_free(i64 %1, ptr %2) #14
  tail call void @jv_free(i64 %3, ptr %4) #14
  br label %36

36:                                               ; preds = %35, %9
  %.pn38 = phi { i64, ptr } [ %13, %9 ], [ %.pn, %35 ]
  ret { i64, ptr } %.pn38
}